target datalayout = "e-m:e-p270:32:32-p271:32:32-p272:64:64-i64:64-i128:128-f80:128-n8:16:32:64-S128"
target triple = "x86_64-pc-linux-gnu"

; Function Attrs: inlinehint mustprogress nounwind uwtable
define linkonce_odr noundef i32 @_ZN6icu_7718CollationFastLatin28getSecondariesFromOneShortCEEj(i32 noundef %0) #3 comdat align 2 {
  %2 = alloca i32, align 4
  %3 = alloca i32, align 4
  store i32 %0, ptr %3, align 4, !tbaa !12
  %4 = load i32, ptr %3, align 4, !tbaa !12
  %5 = and i32 %4, 992
  store i32 %5, ptr %3, align 4, !tbaa !12
  %6 = load i32, ptr %3, align 4, !tbaa !12
  %7 = icmp ult i32 %6, 384
  br i1 %7, label %8, label %11

8:                                                ; preds = %1
  %9 = load i32, ptr %3, align 4, !tbaa !12
  %10 = add i32 %9, 32
  store i32 %10, ptr %2, align 4
  br label %16

11:                                               ; preds = %1
  %12 = load i32, ptr %3, align 4, !tbaa !12
  %13 = add i32 %12, 32
  %14 = shl i32 %13, 16
  %15 = or i32 %14, 192
  store i32 %15, ptr %2, align 4
  br label %16

16:                                               ; preds = %11, %8
  %17 = load i32, ptr %2, align 4
  ret i32 %17
}

; Function Attrs: mustprogress uwtable
define noundef i32 @_ZN6icu_7718CollationFastLatin14getSecondariesEjj(i32 noundef %0, i32 noundef %1) #0 align 2 {
  %3 = alloca i32, align 4
  %4 = alloca i32, align 4
  %5 = alloca i32, align 4
  store i32 %0, ptr %3, align 4, !tbaa !12
  store i32 %1, ptr %4, align 4, !tbaa !12
  %6 = load i32, ptr %4, align 4, !tbaa !12
  %7 = icmp ule i32 %6, 65535
  br i1 %7, label %8, label %26

8:                                                ; preds = %2
  %9 = load i32, ptr %4, align 4, !tbaa !12
  %10 = icmp uge i32 %9, 4096
  br i1 %10, label %11, label %14

11:                                               ; preds = %8
  %12 = load i32, ptr %4, align 4, !tbaa !12
  %13 = call noundef i32 @_ZN6icu_7718CollationFastLatin28getSecondariesFromOneShortCEEj(i32 noundef %12)
  store i32 %13, ptr %4, align 4, !tbaa !12
  br label %25

14:                                               ; preds = %8
  %15 = load i32, ptr %4, align 4, !tbaa !12
  %16 = load i32, ptr %3, align 4, !tbaa !12
  %17 = icmp ugt i32 %15, %16
  br i1 %17, label %18, label %19

18:                                               ; preds = %14
  store i32 192, ptr %4, align 4, !tbaa !12
  br label %24

19:                                               ; preds = %14
  %20 = load i32, ptr %4, align 4, !tbaa !12
  %21 = icmp uge i32 %20, 3072
  br i1 %21, label %22, label %23

22:                                               ; preds = %19
  store i32 0, ptr %4, align 4, !tbaa !12
  br label %23

23:                                               ; preds = %22, %19
  br label %24

24:                                               ; preds = %23, %18
  br label %25

25:                                               ; preds = %24, %11
  br label %43

26:                                               ; preds = %2
  call void @llvm.lifetime.start.p0(i64 4, ptr %5) #6
  %27 = load i32, ptr %4, align 4, !tbaa !12
  %28 = and i32 %27, 65535
  store i32 %28, ptr %5, align 4, !tbaa !12
  %29 = load i32, ptr %5, align 4, !tbaa !12
  %30 = icmp uge i32 %29, 4096
  br i1 %30, label %31, label %35

31:                                               ; preds = %26
  %32 = load i32, ptr %4, align 4, !tbaa !12
  %33 = and i32 %32, 65012704
  %34 = add i32 %33, 2097184
  store i32 %34, ptr %4, align 4, !tbaa !12
  br label %42

35:                                               ; preds = %26
  %36 = load i32, ptr %5, align 4, !tbaa !12
  %37 = load i32, ptr %3, align 4, !tbaa !12
  %38 = icmp ugt i32 %36, %37
  br i1 %38, label %39, label %40

39:                                               ; preds = %35
  store i32 12583104, ptr %4, align 4, !tbaa !12
  br label %41

40:                                               ; preds = %35
  store i32 0, ptr %4, align 4, !tbaa !12
  br label %41

41:                                               ; preds = %40, %39
  br label %42

42:                                               ; preds = %41, %31
  call void @llvm.lifetime.end.p0(i64 4, ptr %5) #6
  br label %43

43:                                               ; preds = %42, %25
  %44 = load i32, ptr %4, align 4, !tbaa !12
  ret i32 %44
}