; Function Attrs: mustprogress nofree norecurse nosync nounwind willreturn memory(none) uwtable
define noundef range(i32 0, 67109889) i32 @_ZN6icu_7718CollationFastLatin14getSecondariesEjj(i32 noundef %0, i32 noundef %1) local_unnamed_addr #6 align 2 {
  %3 = icmp ult i32 %1, 65536
  br i1 %3, label %4, label %16

4:                                                ; preds = %2
  %5 = icmp samesign ugt i32 %1, 4095
  br i1 %5, label %6, label %12

6:                                                ; preds = %4
  %7 = and i32 %1, 992
  %8 = icmp samesign ult i32 %7, 384
  %9 = add nuw nsw i32 %7, 32
  %10 = shl nuw nsw i32 %7, 16
  %11 = add nuw nsw i32 %10, 2097344
  %.0.i = select i1 %8, i32 %9, i32 %11
  br label %22

12:                                               ; preds = %4
  %13 = icmp ugt i32 %1, %0
  br i1 %13, label %22, label %14

14:                                               ; preds = %12
  %15 = icmp samesign ugt i32 %1, 3071
  %spec.store.select = select i1 %15, i32 0, i32 %1
  br label %22

16:                                               ; preds = %2
  %17 = and i32 %1, 65535
  %18 = icmp samesign ugt i32 %17, 4095
  %19 = and i32 %1, 65012704
  %20 = add nuw nsw i32 %19, 2097184
  %21 = icmp ugt i32 %17, %0
  %. = select i1 %21, i32 12583104, i32 0
  %.1 = select i1 %18, i32 %20, i32 %.
  br label %22

22:                                               ; preds = %12, %6, %14, %16
  %.0 = phi i32 [ %.0.i, %6 ], [ %spec.store.select, %14 ], [ %.1, %16 ], [ 192, %12 ]
  ret i32 %.0
}